; Function Attrs: mustprogress nounwind uwtable
define internal fastcc void @_ZN12_GLOBAL__N_112StmtProfiler19VisitPredefinedExprEPKN5clang14PredefinedExprE(ptr noundef nonnull align 8 dereferenceable(18) %0, ptr noundef %1) unnamed_addr #0 align 2 {
  tail call fastcc void @_ZN12_GLOBAL__N_112StmtProfiler9VisitStmtEPKN5clang4StmtE(ptr noundef nonnull align 8 dereferenceable(18) %0, ptr noundef %1)
  %3 = getelementptr inbounds nuw i8, ptr %0, i64 8
  %4 = load ptr, ptr %3, align 8
  %5 = load i32, ptr %1, align 8
  %6 = tail call noundef i64 @_ZNK4llvm15SmallVectorBaseIjE4sizeEv(ptr noundef nonnull align 8 dereferenceable(144) %4) #11
  %7 = add i64 %6, 1
  %8 = tail call noundef i64 @_ZNK4llvm15SmallVectorBaseIjE8capacityEv(ptr noundef nonnull align 8 dereferenceable(144) %4) #11
  %.not.i.i.i.i = icmp ugt i64 %7, %8
  br i1 %.not.i.i.i.i, label %9, label %_ZN4llvm16FoldingSetNodeID10AddIntegerEi.exit

9:                                                ; preds = %2
  %10 = getelementptr inbounds nuw i8, ptr %4, i64 16
  tail call void @_ZN4llvm15SmallVectorBaseIjE8grow_podEPvmm(ptr noundef nonnull align 8 dereferenceable(144) %4, ptr noundef nonnull %10, i64 noundef %7, i64 noundef 4) #11
  br label %_ZN4llvm16FoldingSetNodeID10AddIntegerEi.exit

_ZN4llvm16FoldingSetNodeID10AddIntegerEi.exit:    ; preds = %2, %9
  %11 = lshr i32 %5, 18
  %12 = and i32 %11, 15
  %13 = load ptr, ptr %4, align 8
  %14 = tail call noundef i64 @_ZNK4llvm15SmallVectorBaseIjE4sizeEv(ptr noundef nonnull align 8 dereferenceable(144) %4) #11
  %15 = getelementptr inbounds i32, ptr %13, i64 %14
  store i32 %12, ptr %15, align 1
  %16 = tail call noundef i64 @_ZNK4llvm15SmallVectorBaseIjE4sizeEv(ptr noundef nonnull align 8 dereferenceable(144) %4) #11
  %17 = add i64 %16, 1
  tail call void @_ZN4llvm15SmallVectorBaseIjE8set_sizeEm(ptr noundef nonnull align 8 dereferenceable(144) %4, i64 noundef %17) #11
  ret void
}